target datalayout = "e-m:e-p270:32:32-p271:32:32-p272:64:64-i64:64-i128:128-f80:128-n8:16:32:64-S128"
target triple = "x86_64-unknown-linux-gnu"

%"class.std::basic_ostream" = type { ptr, %"class.std::basic_ios" }
%"class.std::basic_ios" = type { %"class.std::ios_base", ptr, i8, i8, ptr, ptr, ptr, ptr }
%"class.std::ios_base" = type { ptr, i64, i64, i32, i32, i32, ptr, %"struct.std::ios_base::_Words", [8 x %"struct.std::ios_base::_Words"], i32, ptr, %"class.std::locale" }
%"struct.std::ios_base::_Words" = type { ptr, i64 }
%"class.std::locale" = type { ptr }

@_ZSt4cerr = external global %"class.std::basic_ostream", align 8
@.str.3 = private unnamed_addr constant [62 x i8] c"(C)ontinue, (A)bort, (S)top, (T)hrow exception, Invoke (G)DB\0A\00", align 1
@.str.4 = private unnamed_addr constant [17 x i8] c"INVALID COMMAND\0A\00", align 1

; Function Attrs: mustprogress uwtable
define hidden noundef i32 @_Z16ask_debug_actionRSi(ptr noundef nonnull align 8 dereferenceable(16) %in) #5 {
entry:
  %retval = alloca i32, align 4
  %in.addr = alloca ptr, align 8
  %result = alloca i8, align 1
  %ok = alloca i8, align 1
  store ptr %in, ptr %in.addr, align 8
  %call = call noundef nonnull align 8 dereferenceable(8) ptr @_ZStlsISt11char_traitsIcEERSt13basic_ostreamIcT_ES5_PKc(ptr noundef nonnull align 8 dereferenceable(8) @_ZSt4cerr, ptr noundef @.str.3)
  %0 = load ptr, ptr %in.addr, align 8
  %call1 = call noundef nonnull align 8 dereferenceable(16) ptr @_ZStrsIcSt11char_traitsIcEERSt13basic_istreamIT_T0_ES6_RS3_(ptr noundef nonnull align 8 dereferenceable(16) %0, ptr noundef nonnull align 1 dereferenceable(1) %result)
  %vtable = load ptr, ptr %call1, align 8
  %vbase.offset.ptr = getelementptr i8, ptr %vtable, i64 -24
  %vbase.offset = load i64, ptr %vbase.offset.ptr, align 8
  %add.ptr = getelementptr inbounds i8, ptr %call1, i64 %vbase.offset
  %call2 = call noundef zeroext i1 @_ZNKSt9basic_iosIcSt11char_traitsIcEEcvbEv(ptr noundef nonnull align 8 dereferenceable(264) %add.ptr)
  %frombool = zext i1 %call2 to i8
  store i8 %frombool, ptr %ok, align 1
  %1 = load i8, ptr %ok, align 1
  %tobool = trunc i8 %1 to i1
  br i1 %tobool, label %if.end, label %if.then

if.then:                                          ; preds = %entry
  call void @exit(i32 noundef 110) #12
  unreachable

if.end:                                           ; preds = %entry
  %2 = load i8, ptr %result, align 1
  %conv = sext i8 %2 to i32
  switch i32 %conv, label %sw.default [
    i32 67, label %sw.bb
    i32 99, label %sw.bb
    i32 65, label %sw.bb3
    i32 97, label %sw.bb3
    i32 83, label %sw.bb4
    i32 115, label %sw.bb4
    i32 116, label %sw.bb5
    i32 84, label %sw.bb5
    i32 71, label %sw.bb6
    i32 103, label %sw.bb6
  ]

sw.bb:                                            ; preds = %if.end, %if.end
  store i32 1, ptr %retval, align 4
  br label %return

sw.bb3:                                           ; preds = %if.end, %if.end
  store i32 2, ptr %retval, align 4
  br label %return

sw.bb4:                                           ; preds = %if.end, %if.end
  store i32 3, ptr %retval, align 4
  br label %return

sw.bb5:                                           ; preds = %if.end, %if.end
  store i32 4, ptr %retval, align 4
  br label %return

sw.bb6:                                           ; preds = %if.end, %if.end
  store i32 5, ptr %retval, align 4
  br label %return

sw.default:                                       ; preds = %if.end
  %call7 = call noundef nonnull align 8 dereferenceable(8) ptr @_ZStlsISt11char_traitsIcEERSt13basic_ostreamIcT_ES5_PKc(ptr noundef nonnull align 8 dereferenceable(8) @_ZSt4cerr, ptr noundef @.str.4)
  store i32 0, ptr %retval, align 4
  br label %return

return:                                           ; preds = %sw.default, %sw.bb6, %sw.bb5, %sw.bb4, %sw.bb3, %sw.bb
  %3 = load i32, ptr %retval, align 4
  ret i32 %3
}