; Function Attrs: mustprogress uwtable
define hidden noundef i32 @_Z16ask_debug_actionRSi(ptr noundef nonnull align 8 dereferenceable(16) %in) local_unnamed_addr #4 {
entry:
  %result = alloca i8, align 1
  %call = tail call noundef nonnull align 8 dereferenceable(8) ptr @_ZStlsISt11char_traitsIcEERSt13basic_ostreamIcT_ES5_PKc(ptr noundef nonnull align 8 dereferenceable(8) @_ZSt4cerr, ptr noundef nonnull @.str.3)
  %call1 = call noundef nonnull align 8 dereferenceable(16) ptr @_ZStrsIcSt11char_traitsIcEERSt13basic_istreamIT_T0_ES6_RS3_(ptr noundef nonnull align 8 dereferenceable(16) %in, ptr noundef nonnull align 1 dereferenceable(1) %result)
  %vtable = load ptr, ptr %call1, align 8
  %vbase.offset.ptr = getelementptr i8, ptr %vtable, i64 -24
  %vbase.offset = load i64, ptr %vbase.offset.ptr, align 8
  %add.ptr = getelementptr inbounds i8, ptr %call1, i64 %vbase.offset
  %call2 = call noundef zeroext i1 @_ZNKSt9basic_iosIcSt11char_traitsIcEEcvbEv(ptr noundef nonnull align 8 dereferenceable(264) %add.ptr)
  br i1 %call2, label %if.end, label %if.then

if.then:                                          ; preds = %entry
  call void @exit(i32 noundef 110) #16
  unreachable

if.end:                                           ; preds = %entry
  %0 = load i8, ptr %result, align 1
  switch i8 %0, label %sw.default [
    i8 67, label %return
    i8 99, label %return
    i8 65, label %sw.bb3
    i8 97, label %sw.bb3
    i8 83, label %sw.bb4
    i8 115, label %sw.bb4
    i8 116, label %sw.bb5
    i8 84, label %sw.bb5
    i8 71, label %sw.bb6
    i8 103, label %sw.bb6
  ]

sw.bb3:                                           ; preds = %if.end, %if.end
  br label %return

sw.bb4:                                           ; preds = %if.end, %if.end
  br label %return

sw.bb5:                                           ; preds = %if.end, %if.end
  br label %return

sw.bb6:                                           ; preds = %if.end, %if.end
  br label %return

sw.default:                                       ; preds = %if.end
  %call7 = call noundef nonnull align 8 dereferenceable(8) ptr @_ZStlsISt11char_traitsIcEERSt13basic_ostreamIcT_ES5_PKc(ptr noundef nonnull align 8 dereferenceable(8) @_ZSt4cerr, ptr noundef nonnull @.str.4)
  br label %return

return:                                           ; preds = %if.end, %if.end, %sw.default, %sw.bb6, %sw.bb5, %sw.bb4, %sw.bb3
  %retval.0 = phi i32 [ 0, %sw.default ], [ 5, %sw.bb6 ], [ 4, %sw.bb5 ], [ 3, %sw.bb4 ], [ 2, %sw.bb3 ], [ 1, %if.end ], [ 1, %if.end ]
  ret i32 %retval.0
}